; Function Attrs: mustprogress uwtable
define void @_ZNK9grpc_core19ProxyMapperRegistry10MapAddressERK21grpc_resolved_addressPNS_11ChannelArgsE(ptr dead_on_unwind noalias writable sret(%"class.std::optional.8") align 4 %0, ptr noundef nonnull readonly align 8 captures(none) dereferenceable(24) %1, ptr noundef nonnull align 4 dereferenceable(132) %2, ptr noundef nonnull %3) local_unnamed_addr #3 align 2 personality ptr @__gxx_personality_v0 {
  %5 = alloca %"class.grpc_core::ChannelArgs", align 8
  call void @llvm.lifetime.start.p0(i64 8, ptr nonnull %5) #14
  call void @_ZN9grpc_core11ChannelArgsC1ERKS0_(ptr noundef nonnull align 8 dereferenceable(8) %5, ptr noundef nonnull align 8 dereferenceable(8) %3)
  %6 = load ptr, ptr %1, align 8, !tbaa !3
  %7 = getelementptr inbounds nuw i8, ptr %1, i64 8
  %8 = load ptr, ptr %7, align 8, !tbaa !3
  %.not19 = icmp eq ptr %6, %8
  br i1 %.not19, label %.critedge, label %.lr.ph

.lr.ph:                                           ; preds = %4
  %9 = getelementptr inbounds nuw i8, ptr %0, i64 132
  br label %12

10:                                               ; preds = %19
  %11 = getelementptr inbounds nuw i8, ptr %.sroa.016.020, i64 8
  %.not = icmp eq ptr %11, %8
  br i1 %.not, label %.critedge, label %12

12:                                               ; preds = %.lr.ph, %10
  %.sroa.016.020 = phi ptr [ %6, %.lr.ph ], [ %11, %10 ]
  %13 = invoke noundef nonnull align 8 dereferenceable(8) ptr @_ZN9grpc_core11ChannelArgsaSERKS0_(ptr noundef nonnull align 8 dereferenceable(8) %3, ptr noundef nonnull align 8 dereferenceable(8) %5)
          to label %14 unwind label %22

14:                                               ; preds = %12
  %15 = load ptr, ptr %.sroa.016.020, align 8, !tbaa !11
  %16 = load ptr, ptr %15, align 8, !tbaa !13
  %17 = getelementptr inbounds nuw i8, ptr %16, i64 24
  %18 = load ptr, ptr %17, align 8
  invoke void %18(ptr dead_on_unwind writable sret(%"class.std::optional.8") align 4 %0, ptr noundef nonnull align 8 dereferenceable(8) %15, ptr noundef nonnull align 4 dereferenceable(132) %2, ptr noundef nonnull %3)
          to label %19 unwind label %22

19:                                               ; preds = %14
  %20 = load i8, ptr %9, align 4, !tbaa !23, !range !21, !noundef !22
  %21 = trunc nuw i8 %20 to i1
  br i1 %21, label %.loopexit, label %10

22:                                               ; preds = %14, %12
  %23 = landingpad { ptr, i32 }
          cleanup
  br label %29

.critedge:                                        ; preds = %10, %4
  %24 = invoke noundef nonnull align 8 dereferenceable(8) ptr @_ZN9grpc_core11ChannelArgsaSERKS0_(ptr noundef nonnull align 8 dereferenceable(8) %3, ptr noundef nonnull align 8 dereferenceable(8) %5)
          to label %25 unwind label %27

25:                                               ; preds = %.critedge
  %26 = getelementptr inbounds nuw i8, ptr %0, i64 132
  store i8 0, ptr %26, align 4, !tbaa !23
  br label %.loopexit

27:                                               ; preds = %.critedge
  %28 = landingpad { ptr, i32 }
          cleanup
  br label %29

.loopexit:                                        ; preds = %19, %25
  call void @_ZN9grpc_core11ChannelArgsD1Ev(ptr noundef nonnull align 8 dereferenceable(8) %5) #14
  call void @llvm.lifetime.end.p0(i64 8, ptr nonnull %5) #14
  ret void

29:                                               ; preds = %27, %22
  %.pn = phi { ptr, i32 } [ %28, %27 ], [ %23, %22 ]
  call void @_ZN9grpc_core11ChannelArgsD1Ev(ptr noundef nonnull align 8 dereferenceable(8) %5) #14
  call void @llvm.lifetime.end.p0(i64 8, ptr nonnull %5) #14
  resume { ptr, i32 } %.pn
}